target datalayout = "e-m:e-p270:32:32-p271:32:32-p272:64:64-i64:64-i128:128-f80:128-n8:16:32:64-S128"
target triple = "x86_64-pc-linux-gnu"

%struct.strbuf = type { i64, i64, ptr }
%struct.object_id = type { [32 x i8], i32 }

@has_symlinks = external global i32, align 4
@the_repository = external global ptr, align 8
@__const.get_symlink.link = private unnamed_addr constant %struct.strbuf { i64 0, i64 0, ptr @strbuf_slopbuf }, align 8
@.str.80 = private unnamed_addr constant [26 x i8] c"could not read symlink %s\00", align 1
@.str.81 = private unnamed_addr constant [31 x i8] c"could not read symlink file %s\00", align 1
@.str.82 = private unnamed_addr constant [40 x i8] c"could not read object %s for symlink %s\00", align 1
@is_null_oid.null_hash = internal constant [32 x i8] zeroinitializer, align 16

; Function Attrs: inlinehint nounwind uwtable
define internal i32 @is_null_oid(ptr noundef %0) #4 {
  %2 = alloca ptr, align 8
  store ptr %0, ptr %2, align 8, !tbaa !94
  %3 = load ptr, ptr %2, align 8, !tbaa !94
  %4 = getelementptr inbounds nuw %struct.object_id, ptr %3, i32 0, i32 0
  %5 = getelementptr inbounds [32 x i8], ptr %4, i64 0, i64 0
  %6 = call i32 @memcmp(ptr noundef %5, ptr noundef @is_null_oid.null_hash, i64 noundef 32) #11
  %7 = icmp ne i32 %6, 0
  %8 = xor i1 %7, true
  %9 = zext i1 %8 to i32
  ret i32 %9
}

; Function Attrs: nounwind uwtable
define internal ptr @get_symlink(ptr noundef %0, ptr noundef %1) #0 {
  %3 = alloca ptr, align 8
  %4 = alloca ptr, align 8
  %5 = alloca ptr, align 8
  %6 = alloca %struct.strbuf, align 8
  %7 = alloca i32, align 4
  %8 = alloca i64, align 8
  store ptr %0, ptr %3, align 8, !tbaa !94
  store ptr %1, ptr %4, align 8, !tbaa !11
  call void @llvm.lifetime.start.p0(i64 8, ptr %5) #9
  %9 = load ptr, ptr %3, align 8, !tbaa !94
  %10 = call i32 @is_null_oid(ptr noundef %9)
  %11 = icmp ne i32 %10, 0
  br i1 %11, label %12, label %35

12:                                               ; preds = %2
  call void @llvm.lifetime.start.p0(i64 24, ptr %6) #9
  call void @llvm.memcpy.p0.p0.i64(ptr align 8 %6, ptr align 8 @__const.get_symlink.link, i64 24, i1 false)
  %13 = load i32, ptr @has_symlinks, align 4, !tbaa !4
  %14 = icmp ne i32 %13, 0
  br i1 %14, label %15, label %25

15:                                               ; preds = %12
  %16 = load ptr, ptr %4, align 8, !tbaa !11
  %17 = load ptr, ptr %4, align 8, !tbaa !11
  %18 = call i64 @strlen(ptr noundef %17) #11
  %19 = call i32 @strbuf_readlink(ptr noundef %6, ptr noundef %16, i64 noundef %18)
  %20 = icmp ne i32 %19, 0
  br i1 %20, label %21, label %24

21:                                               ; preds = %15
  %22 = call ptr @_(ptr noundef @.str.80)
  %23 = load ptr, ptr %4, align 8, !tbaa !11
  call void (ptr, ...) @die(ptr noundef %22, ptr noundef %23) #10
  unreachable

24:                                               ; preds = %15
  br label %33

25:                                               ; preds = %12
  %26 = load ptr, ptr %4, align 8, !tbaa !11
  %27 = call i64 @strbuf_read_file(ptr noundef %6, ptr noundef %26, i64 noundef 128)
  %28 = icmp ne i64 %27, 0
  br i1 %28, label %29, label %32

29:                                               ; preds = %25
  %30 = call ptr @_(ptr noundef @.str.81)
  %31 = load ptr, ptr %4, align 8, !tbaa !11
  call void (ptr, ...) @die(ptr noundef %30, ptr noundef %31) #10
  unreachable

32:                                               ; preds = %25
  br label %33

33:                                               ; preds = %32, %24
  %34 = call ptr @strbuf_detach(ptr noundef %6, ptr noundef null)
  store ptr %34, ptr %5, align 8, !tbaa !11
  call void @llvm.lifetime.end.p0(i64 24, ptr %6) #9
  br label %47

35:                                               ; preds = %2
  call void @llvm.lifetime.start.p0(i64 4, ptr %7) #9
  call void @llvm.lifetime.start.p0(i64 8, ptr %8) #9
  %36 = load ptr, ptr @the_repository, align 8, !tbaa !13
  %37 = load ptr, ptr %3, align 8, !tbaa !94
  %38 = call ptr @repo_read_object_file(ptr noundef %36, ptr noundef %37, ptr noundef %7, ptr noundef %8)
  store ptr %38, ptr %5, align 8, !tbaa !11
  %39 = load ptr, ptr %5, align 8, !tbaa !11
  %40 = icmp ne ptr %39, null
  br i1 %40, label %46, label %41

41:                                               ; preds = %35
  %42 = call ptr @_(ptr noundef @.str.82)
  %43 = load ptr, ptr %3, align 8, !tbaa !94
  %44 = call ptr @oid_to_hex(ptr noundef %43)
  %45 = load ptr, ptr %4, align 8, !tbaa !11
  call void (ptr, ...) @die(ptr noundef %42, ptr noundef %44, ptr noundef %45) #10
  unreachable

46:                                               ; preds = %35
  call void @llvm.lifetime.end.p0(i64 8, ptr %8) #9
  call void @llvm.lifetime.end.p0(i64 4, ptr %7) #9
  br label %47

47:                                               ; preds = %46, %33
  %48 = load ptr, ptr %5, align 8, !tbaa !11
  call void @llvm.lifetime.end.p0(i64 8, ptr %5) #9
  ret ptr %48
}