; Function Attrs: nounwind uwtable
define internal fastcc ptr @get_symlink(ptr noundef nonnull %0, ptr noundef %1) unnamed_addr #0 {
  %3 = alloca %struct.strbuf, align 8
  %4 = alloca i32, align 4
  %5 = alloca i64, align 8
  %bcmp.i = tail call i32 @bcmp(ptr noundef nonnull readonly dereferenceable(32) %0, ptr noundef nonnull dereferenceable(32) @is_null_oid.null_hash, i64 32)
  %.not.i.not = icmp eq i32 %bcmp.i, 0
  br i1 %.not.i.not, label %6, label %19

6:                                                ; preds = %2
  call void @llvm.lifetime.start.p0(i64 24, ptr nonnull %3) #18
  call void @llvm.memcpy.p0.p0.i64(ptr noundef nonnull align 8 dereferenceable(24) %3, ptr noundef nonnull align 8 dereferenceable(24) @__const.changed_files.buf, i64 24, i1 false)
  %7 = load i32, ptr @has_symlinks, align 4, !tbaa !4
  %.not13 = icmp eq i32 %7, 0
  br i1 %.not13, label %13, label %8

8:                                                ; preds = %6
  %9 = tail call i64 @strlen(ptr noundef nonnull dereferenceable(1) %1) #20
  %10 = call i32 @strbuf_readlink(ptr noundef nonnull %3, ptr noundef nonnull %1, i64 noundef %9) #18
  %.not15 = icmp eq i32 %10, 0
  br i1 %.not15, label %17, label %11

11:                                               ; preds = %8
  %12 = call fastcc ptr @_(ptr noundef nonnull @.str.80)
  call void (ptr, ...) @die(ptr noundef %12, ptr noundef nonnull %1) #19
  unreachable

13:                                               ; preds = %6
  %14 = call i64 @strbuf_read_file(ptr noundef nonnull %3, ptr noundef %1, i64 noundef 128) #18
  %.not14 = icmp eq i64 %14, 0
  br i1 %.not14, label %17, label %15

15:                                               ; preds = %13
  %16 = call fastcc ptr @_(ptr noundef nonnull @.str.81)
  call void (ptr, ...) @die(ptr noundef %16, ptr noundef %1) #19
  unreachable

17:                                               ; preds = %13, %8
  %18 = call ptr @strbuf_detach(ptr noundef nonnull %3, ptr noundef null) #18
  call void @llvm.lifetime.end.p0(i64 24, ptr nonnull %3) #18
  br label %26

19:                                               ; preds = %2
  call void @llvm.lifetime.start.p0(i64 4, ptr nonnull %4) #18
  call void @llvm.lifetime.start.p0(i64 8, ptr nonnull %5) #18
  %20 = load ptr, ptr @the_repository, align 8, !tbaa !21
  %21 = call ptr @repo_read_object_file(ptr noundef %20, ptr noundef nonnull %0, ptr noundef nonnull %4, ptr noundef nonnull %5) #18
  %.not12 = icmp eq ptr %21, null
  br i1 %.not12, label %22, label %25

22:                                               ; preds = %19
  %23 = call fastcc ptr @_(ptr noundef nonnull @.str.82)
  %24 = call ptr @oid_to_hex(ptr noundef nonnull %0) #18
  call void (ptr, ...) @die(ptr noundef %23, ptr noundef %24, ptr noundef %1) #19
  unreachable

25:                                               ; preds = %19
  call void @llvm.lifetime.end.p0(i64 8, ptr nonnull %5) #18
  call void @llvm.lifetime.end.p0(i64 4, ptr nonnull %4) #18
  br label %26

26:                                               ; preds = %25, %17
  %.0 = phi ptr [ %18, %17 ], [ %21, %25 ]
  ret ptr %.0
}